; ModuleID = '19/2144.c'
source_filename = "19/2144.c"
target datalayout = "e-m:e-p270:32:32-p271:32:32-p272:64:64-i64:64-f80:128-n8:16:32:64-S128"
target triple = "x86_64-pc-linux-gnu"

@.str = private unnamed_addr constant [4 x i8] c"%s \00", align 1
@.str.1 = private unnamed_addr constant [3 x i8] c"%s\00", align 1

; Function Attrs: noinline nounwind uwtable
define dso_local i32 @main() #0 {
  %1 = alloca i32, align 4
  %2 = alloca [101 x i8], align 16
  %3 = alloca [200 x [20 x i8]], align 16
  %4 = alloca [20 x i8], align 16
  %5 = alloca [20 x i8], align 16
  %6 = alloca i32, align 4
  %7 = alloca i32, align 4
  %8 = alloca i32, align 4
  %9 = alloca i32, align 4
  %10 = alloca i32, align 4
  %11 = alloca i32, align 4
  store i32 0, i32* %1, align 4
  store i32 0, i32* %7, align 4
  store i32 0, i32* %8, align 4
  store i32 0, i32* %9, align 4
  store i32 0, i32* %10, align 4
  store i32 0, i32* %11, align 4
  %12 = getelementptr inbounds [101 x i8], [101 x i8]* %2, i64 0, i64 0
  %13 = call i32 (i8*, ...) bitcast (i32 (...)* @gets to i32 (i8*, ...)*)(i8* %12)
  %14 = getelementptr inbounds [20 x i8], [20 x i8]* %5, i64 0, i64 0
  %15 = call i32 (i8*, ...) bitcast (i32 (...)* @gets to i32 (i8*, ...)*)(i8* %14)
  %16 = getelementptr inbounds [20 x i8], [20 x i8]* %4, i64 0, i64 0
  %17 = call i32 (i8*, ...) bitcast (i32 (...)* @gets to i32 (i8*, ...)*)(i8* %16)
  store i32 0, i32* %6, align 4
  br label %18

18:                                               ; preds = %57, %0
  %19 = load i32, i32* %6, align 4
  %20 = sext i32 %19 to i64
  %21 = getelementptr inbounds [101 x i8], [101 x i8]* %2, i64 0, i64 %20
  %22 = load i8, i8* %21, align 1
  %23 = sext i8 %22 to i32
  %24 = icmp ne i32 %23, 0
  br i1 %24, label %25, label %60

25:                                               ; preds = %18
  %26 = load i32, i32* %6, align 4
  %27 = sext i32 %26 to i64
  %28 = getelementptr inbounds [101 x i8], [101 x i8]* %2, i64 0, i64 %27
  %29 = load i8, i8* %28, align 1
  %30 = sext i8 %29 to i32
  %31 = icmp eq i32 %30, 32
  br i1 %31, label %32, label %43

32:                                               ; preds = %25
  %33 = load i32, i32* %8, align 4
  %34 = sext i32 %33 to i64
  %35 = getelementptr inbounds [200 x [20 x i8]], [200 x [20 x i8]]* %3, i64 0, i64 %34
  %36 = load i32, i32* %9, align 4
  %37 = sext i32 %36 to i64
  %38 = getelementptr inbounds [20 x i8], [20 x i8]* %35, i64 0, i64 %37
  store i8 0, i8* %38, align 1
  %39 = load i32, i32* %8, align 4
  %40 = add nsw i32 %39, 1
  store i32 %40, i32* %8, align 4
  store i32 0, i32* %9, align 4
  %41 = load i32, i32* %7, align 4
  %42 = add nsw i32 %41, 1
  store i32 %42, i32* %7, align 4
  br label %56

43:                                               ; preds = %25
  %44 = load i32, i32* %6, align 4
  %45 = sext i32 %44 to i64
  %46 = getelementptr inbounds [101 x i8], [101 x i8]* %2, i64 0, i64 %45
  %47 = load i8, i8* %46, align 1
  %48 = load i32, i32* %8, align 4
  %49 = sext i32 %48 to i64
  %50 = getelementptr inbounds [200 x [20 x i8]], [200 x [20 x i8]]* %3, i64 0, i64 %49
  %51 = load i32, i32* %9, align 4
  %52 = sext i32 %51 to i64
  %53 = getelementptr inbounds [20 x i8], [20 x i8]* %50, i64 0, i64 %52
  store i8 %47, i8* %53, align 1
  %54 = load i32, i32* %9, align 4
  %55 = add nsw i32 %54, 1
  store i32 %55, i32* %9, align 4
  br label %56

56:                                               ; preds = %43, %32
  br label %57

57:                                               ; preds = %56
  %58 = load i32, i32* %6, align 4
  %59 = add nsw i32 %58, 1
  store i32 %59, i32* %6, align 4
  br label %18

60:                                               ; preds = %18
  %61 = load i32, i32* %8, align 4
  %62 = sext i32 %61 to i64
  %63 = getelementptr inbounds [200 x [20 x i8]], [200 x [20 x i8]]* %3, i64 0, i64 %62
  %64 = load i32, i32* %9, align 4
  %65 = sext i32 %64 to i64
  %66 = getelementptr inbounds [20 x i8], [20 x i8]* %63, i64 0, i64 %65
  store i8 0, i8* %66, align 1
  store i32 0, i32* %8, align 4
  br label %67

67:                                               ; preds = %88, %60
  %68 = load i32, i32* %8, align 4
  %69 = load i32, i32* %7, align 4
  %70 = icmp sle i32 %68, %69
  br i1 %70, label %71, label %91

71:                                               ; preds = %67
  %72 = load i32, i32* %8, align 4
  %73 = sext i32 %72 to i64
  %74 = getelementptr inbounds [200 x [20 x i8]], [200 x [20 x i8]]* %3, i64 0, i64 %73
  %75 = getelementptr inbounds [20 x i8], [20 x i8]* %74, i64 0, i64 0
  %76 = getelementptr inbounds [20 x i8], [20 x i8]* %5, i64 0, i64 0
  %77 = call i32 @strcmp(i8* %75, i8* %76) #4
  %78 = icmp eq i32 %77, 0
  br i1 %78, label %79, label %86

79:                                               ; preds = %71
  %80 = load i32, i32* %8, align 4
  %81 = sext i32 %80 to i64
  %82 = getelementptr inbounds [200 x [20 x i8]], [200 x [20 x i8]]* %3, i64 0, i64 %81
  %83 = getelementptr inbounds [20 x i8], [20 x i8]* %82, i64 0, i64 0
  %84 = getelementptr inbounds [20 x i8], [20 x i8]* %4, i64 0, i64 0
  %85 = call i8* @strcpy(i8* %83, i8* %84) #5
  br label %87

86:                                               ; preds = %71
  br label %88

87:                                               ; preds = %79
  br label %88

88:                                               ; preds = %87, %86
  %89 = load i32, i32* %8, align 4
  %90 = add nsw i32 %89, 1
  store i32 %90, i32* %8, align 4
  br label %67

91:                                               ; preds = %67
  store i32 0, i32* %8, align 4
  br label %92

92:                                               ; preds = %102, %91
  %93 = load i32, i32* %8, align 4
  %94 = load i32, i32* %7, align 4
  %95 = icmp slt i32 %93, %94
  br i1 %95, label %96, label %105

96:                                               ; preds = %92
  %97 = load i32, i32* %8, align 4
  %98 = sext i32 %97 to i64
  %99 = getelementptr inbounds [200 x [20 x i8]], [200 x [20 x i8]]* %3, i64 0, i64 %98
  %100 = getelementptr inbounds [20 x i8], [20 x i8]* %99, i64 0, i64 0
  %101 = call i32 (i8*, ...) @printf(i8* getelementptr inbounds ([4 x i8], [4 x i8]* @.str, i64 0, i64 0), i8* %100)
  br label %102

102:                                              ; preds = %96
  %103 = load i32, i32* %8, align 4
  %104 = add nsw i32 %103, 1
  store i32 %104, i32* %8, align 4
  br label %92

105:                                              ; preds = %92
  %106 = load i32, i32* %7, align 4
  %107 = sext i32 %106 to i64
  %108 = getelementptr inbounds [200 x [20 x i8]], [200 x [20 x i8]]* %3, i64 0, i64 %107
  %109 = getelementptr inbounds [20 x i8], [20 x i8]* %108, i64 0, i64 0
  %110 = call i32 (i8*, ...) @printf(i8* getelementptr inbounds ([3 x i8], [3 x i8]* @.str.1, i64 0, i64 0), i8* %109)
  ret i32 0
}

declare dso_local i32 @gets(...) #1

; Function Attrs: nounwind readonly
declare dso_local i32 @strcmp(i8*, i8*) #2

; Function Attrs: nounwind
declare dso_local i8* @strcpy(i8*, i8*) #3

declare dso_local i32 @printf(i8*, ...) #1


!llvm.module.flags = !{!0}
!llvm.ident = !{!1}

!0 = !{i32 1, !"wchar_size", i32 4}
!1 = !{!"clang version 10.0.0-4ubuntu1 "}
