; ModuleID = 'source-C-CXX/18/2144.c'
source_filename = "source-C-CXX/18/2144.c"
target datalayout = "e-m:e-p270:32:32-p271:32:32-p272:64:64-i64:64-f80:128-n8:16:32:64-S128"
target triple = "x86_64-pc-linux-gnu"

@.str = private unnamed_addr constant [4 x i8] c"%s \00", align 1
@.str.1 = private unnamed_addr constant [3 x i8] c"%s\00", align 1

; Function Attrs: nounwind sspstrong uwtable
define dso_local i32 @main() local_unnamed_addr #0 {
  %1 = alloca [101 x i8], align 16
  %2 = alloca [200 x [20 x i8]], align 16
  %3 = alloca [20 x i8], align 16
  %4 = alloca [20 x i8], align 16
  %5 = getelementptr inbounds [101 x i8], [101 x i8]* %1, i64 0, i64 0
  call void @llvm.lifetime.start.p0i8(i64 101, i8* nonnull %5) #6
  %6 = getelementptr inbounds [200 x [20 x i8]], [200 x [20 x i8]]* %2, i64 0, i64 0, i64 0
  call void @llvm.lifetime.start.p0i8(i64 4000, i8* nonnull %6) #6
  %7 = getelementptr inbounds [20 x i8], [20 x i8]* %3, i64 0, i64 0
  call void @llvm.lifetime.start.p0i8(i64 20, i8* nonnull %7) #6
  %8 = getelementptr inbounds [20 x i8], [20 x i8]* %4, i64 0, i64 0
  call void @llvm.lifetime.start.p0i8(i64 20, i8* nonnull %8) #6
  %9 = call i32 (i8*, ...) bitcast (i32 (...)* @gets to i32 (i8*, ...)*)(i8* nonnull %5) #6
  %10 = call i32 (i8*, ...) bitcast (i32 (...)* @gets to i32 (i8*, ...)*)(i8* nonnull %8) #6
  %11 = call i32 (i8*, ...) bitcast (i32 (...)* @gets to i32 (i8*, ...)*)(i8* nonnull %7) #6
  br label %12

12:                                               ; preds = %30, %0
  %13 = phi i64 [ %34, %30 ], [ 0, %0 ]
  %14 = phi i32 [ %31, %30 ], [ 0, %0 ]
  %15 = phi i32 [ %32, %30 ], [ 0, %0 ]
  %16 = phi i32 [ %33, %30 ], [ 0, %0 ]
  %17 = getelementptr inbounds [101 x i8], [101 x i8]* %1, i64 0, i64 %13
  %18 = load i8, i8* %17, align 1, !tbaa !5
  switch i8 %18, label %25 [
    i8 0, label %35
    i8 32, label %19
  ]

19:                                               ; preds = %12
  %20 = sext i32 %14 to i64
  %21 = sext i32 %15 to i64
  %22 = getelementptr inbounds [200 x [20 x i8]], [200 x [20 x i8]]* %2, i64 0, i64 %20, i64 %21
  store i8 0, i8* %22, align 1, !tbaa !5
  %23 = add nsw i32 %14, 1
  %24 = add nsw i32 %16, 1
  br label %30

25:                                               ; preds = %12
  %26 = sext i32 %14 to i64
  %27 = sext i32 %15 to i64
  %28 = getelementptr inbounds [200 x [20 x i8]], [200 x [20 x i8]]* %2, i64 0, i64 %26, i64 %27
  store i8 %18, i8* %28, align 1, !tbaa !5
  %29 = add nsw i32 %15, 1
  br label %30

30:                                               ; preds = %19, %25
  %31 = phi i32 [ %23, %19 ], [ %14, %25 ]
  %32 = phi i32 [ 0, %19 ], [ %29, %25 ]
  %33 = phi i32 [ %24, %19 ], [ %16, %25 ]
  %34 = add nuw i64 %13, 1
  br label %12, !llvm.loop !8

35:                                               ; preds = %12
  %36 = sext i32 %14 to i64
  %37 = sext i32 %15 to i64
  %38 = getelementptr inbounds [200 x [20 x i8]], [200 x [20 x i8]]* %2, i64 0, i64 %36, i64 %37
  store i8 0, i8* %38, align 1, !tbaa !5
  %39 = icmp slt i32 %16, 0
  br i1 %39, label %63, label %40

40:                                               ; preds = %35
  %41 = add nuw i32 %16, 1
  %42 = zext i32 %41 to i64
  br label %47

43:                                               ; preds = %54
  %44 = icmp sgt i32 %16, 0
  br i1 %44, label %45, label %63

45:                                               ; preds = %43
  %46 = zext i32 %16 to i64
  br label %57

47:                                               ; preds = %40, %54
  %48 = phi i64 [ 0, %40 ], [ %55, %54 ]
  %49 = getelementptr inbounds [200 x [20 x i8]], [200 x [20 x i8]]* %2, i64 0, i64 %48, i64 0
  %50 = call i32 @strcmp(i8* noundef nonnull %49, i8* noundef nonnull %8) #7
  %51 = icmp eq i32 %50, 0
  br i1 %51, label %52, label %54

52:                                               ; preds = %47
  %53 = call i8* @strcpy(i8* noundef nonnull %49, i8* noundef nonnull %7) #6
  br label %54

54:                                               ; preds = %47, %52
  %55 = add nuw nsw i64 %48, 1
  %56 = icmp eq i64 %55, %42
  br i1 %56, label %43, label %47, !llvm.loop !10

57:                                               ; preds = %45, %57
  %58 = phi i64 [ 0, %45 ], [ %61, %57 ]
  %59 = getelementptr inbounds [200 x [20 x i8]], [200 x [20 x i8]]* %2, i64 0, i64 %58, i64 0
  %60 = call i32 (i8*, ...) @printf(i8* nonnull dereferenceable(1) getelementptr inbounds ([4 x i8], [4 x i8]* @.str, i64 0, i64 0), i8* nonnull %59)
  %61 = add nuw nsw i64 %58, 1
  %62 = icmp eq i64 %61, %46
  br i1 %62, label %63, label %57, !llvm.loop !11

63:                                               ; preds = %57, %35, %43
  %64 = sext i32 %16 to i64
  %65 = getelementptr inbounds [200 x [20 x i8]], [200 x [20 x i8]]* %2, i64 0, i64 %64, i64 0
  %66 = call i32 (i8*, ...) @printf(i8* nonnull dereferenceable(1) getelementptr inbounds ([3 x i8], [3 x i8]* @.str.1, i64 0, i64 0), i8* nonnull %65)
  call void @llvm.lifetime.end.p0i8(i64 20, i8* nonnull %8) #6
  call void @llvm.lifetime.end.p0i8(i64 20, i8* nonnull %7) #6
  call void @llvm.lifetime.end.p0i8(i64 4000, i8* nonnull %6) #6
  call void @llvm.lifetime.end.p0i8(i64 101, i8* nonnull %5) #6
  ret i32 0
}

; Function Attrs: argmemonly mustprogress nofree nosync nounwind willreturn
declare void @llvm.lifetime.start.p0i8(i64 immarg, i8* nocapture) #1

declare i32 @gets(...) local_unnamed_addr #2

; Function Attrs: argmemonly mustprogress nofree nounwind readonly willreturn
declare i32 @strcmp(i8* nocapture, i8* nocapture) local_unnamed_addr #3

; Function Attrs: argmemonly mustprogress nofree nounwind willreturn
declare i8* @strcpy(i8* noalias returned writeonly, i8* noalias nocapture readonly) local_unnamed_addr #4

; Function Attrs: nofree nounwind
declare noundef i32 @printf(i8* nocapture noundef readonly, ...) local_unnamed_addr #5

; Function Attrs: argmemonly mustprogress nofree nosync nounwind willreturn
declare void @llvm.lifetime.end.p0i8(i64 immarg, i8* nocapture) #1


!llvm.module.flags = !{!0, !1, !2, !3}
!llvm.ident = !{!4}

!0 = !{i32 1, !"wchar_size", i32 4}
!1 = !{i32 7, !"PIC Level", i32 2}
!2 = !{i32 7, !"PIE Level", i32 2}
!3 = !{i32 7, !"uwtable", i32 1}
!4 = !{!"clang version 13.0.0"}
!5 = !{!6, !6, i64 0}
!6 = !{!"omnipotent char", !7, i64 0}
!7 = !{!"Simple C/C++ TBAA"}
!8 = distinct !{!8, !9}
!9 = !{!"llvm.loop.mustprogress"}
!10 = distinct !{!10, !9}
!11 = distinct !{!11, !9}
